target datalayout = "e-m:e-p270:32:32-p271:32:32-p272:64:64-i64:64-i128:128-f80:128-n8:16:32:64-S128"
target triple = "x86_64-unknown-linux-gnu"

; Function Attrs: nounwind sspstrong uwtable
define internal i64 @muldiv64(i64 noundef %a, i32 noundef %b, i32 noundef %c) #0 {
entry:
  %a.addr = alloca i64, align 8
  %b.addr = alloca i32, align 4
  %c.addr = alloca i32, align 4
  store i64 %a, ptr %a.addr, align 8
  store i32 %b, ptr %b.addr, align 4
  store i32 %c, ptr %c.addr, align 4
  %0 = load i64, ptr %a.addr, align 8
  %conv = zext i64 %0 to i128
  %1 = load i32, ptr %b.addr, align 4
  %conv1 = zext i32 %1 to i128
  %mul = mul i128 %conv, %conv1
  %2 = load i32, ptr %c.addr, align 4
  %conv2 = zext i32 %2 to i128
  %div = sdiv i128 %mul, %conv2
  %conv3 = trunc i128 %div to i64
  ret i64 %conv3
}

; Function Attrs: nounwind sspstrong uwtable
define dso_local void @e1000x_set_timinca(ptr noundef %mac, ptr noundef %timadj, i32 noundef %val) #0 {
entry:
  %mac.addr = alloca ptr, align 8
  %timadj.addr = alloca ptr, align 8
  %val.addr = alloca i32, align 4
  %ns = alloca i64, align 8
  %old_val = alloca i32, align 4
  %old_incvalue = alloca i32, align 4
  %old_incperiod = alloca i32, align 4
  %_a7 = alloca i32, align 4
  %_b8 = alloca i32, align 4
  %tmp = alloca i32, align 4
  %incvalue = alloca i32, align 4
  %incperiod = alloca i32, align 4
  %_a9 = alloca i32, align 4
  %_b10 = alloca i32, align 4
  %tmp3 = alloca i32, align 4
  store ptr %mac, ptr %mac.addr, align 8
  store ptr %timadj, ptr %timadj.addr, align 8
  store i32 %val, ptr %val.addr, align 4
  %call = call i64 @qemu_clock_get_ns(i32 noundef 1)
  store i64 %call, ptr %ns, align 8
  %0 = load ptr, ptr %mac.addr, align 8
  %arrayidx = getelementptr i32, ptr %0, i64 11650
  %1 = load i32, ptr %arrayidx, align 4
  store i32 %1, ptr %old_val, align 4
  %2 = load i32, ptr %old_val, align 4
  %and = and i32 %2, 16777215
  store i32 %and, ptr %old_incvalue, align 4
  %3 = load i32, ptr %old_val, align 4
  %shr = lshr i32 %3, 24
  store i32 %shr, ptr %_a7, align 4
  store i32 1, ptr %_b8, align 4
  %4 = load i32, ptr %_a7, align 4
  %5 = load i32, ptr %_b8, align 4
  %cmp = icmp ugt i32 %4, %5
  br i1 %cmp, label %cond.true, label %cond.false

cond.true:                                        ; preds = %entry
  %6 = load i32, ptr %_a7, align 4
  br label %cond.end

cond.false:                                       ; preds = %entry
  %7 = load i32, ptr %_b8, align 4
  br label %cond.end

cond.end:                                         ; preds = %cond.false, %cond.true
  %cond = phi i32 [ %6, %cond.true ], [ %7, %cond.false ]
  store i32 %cond, ptr %tmp, align 4
  %8 = load i32, ptr %tmp, align 4
  store i32 %8, ptr %old_incperiod, align 4
  %9 = load i32, ptr %val.addr, align 4
  %and1 = and i32 %9, 16777215
  store i32 %and1, ptr %incvalue, align 4
  %10 = load i32, ptr %val.addr, align 4
  %shr2 = lshr i32 %10, 24
  store i32 %shr2, ptr %_a9, align 4
  store i32 1, ptr %_b10, align 4
  %11 = load i32, ptr %_a9, align 4
  %12 = load i32, ptr %_b10, align 4
  %cmp4 = icmp ugt i32 %11, %12
  br i1 %cmp4, label %cond.true5, label %cond.false6

cond.true5:                                       ; preds = %cond.end
  %13 = load i32, ptr %_a9, align 4
  br label %cond.end7

cond.false6:                                      ; preds = %cond.end
  %14 = load i32, ptr %_b10, align 4
  br label %cond.end7

cond.end7:                                        ; preds = %cond.false6, %cond.true5
  %cond8 = phi i32 [ %13, %cond.true5 ], [ %14, %cond.false6 ]
  store i32 %cond8, ptr %tmp3, align 4
  %15 = load i32, ptr %tmp3, align 4
  store i32 %15, ptr %incperiod, align 4
  %16 = load i32, ptr %val.addr, align 4
  %17 = load ptr, ptr %mac.addr, align 8
  %arrayidx9 = getelementptr i32, ptr %17, i64 11650
  store i32 %16, ptr %arrayidx9, align 4
  %18 = load i64, ptr %ns, align 8
  %19 = load i32, ptr %incvalue, align 4
  %20 = load i32, ptr %incperiod, align 4
  %call10 = call i64 @muldiv64(i64 noundef %18, i32 noundef %19, i32 noundef %20)
  %21 = load i64, ptr %ns, align 8
  %22 = load i32, ptr %old_incvalue, align 4
  %23 = load i32, ptr %old_incperiod, align 4
  %call11 = call i64 @muldiv64(i64 noundef %21, i32 noundef %22, i32 noundef %23)
  %sub = sub i64 %call10, %call11
  %div = udiv i64 %sub, 16
  %24 = load ptr, ptr %timadj.addr, align 8
  %25 = load i64, ptr %24, align 8
  %add = add i64 %25, %div
  store i64 %add, ptr %24, align 8
  ret void
}