; Function Attrs: nounwind sspstrong uwtable
define dso_local void @e1000x_set_timinca(ptr noundef captures(none) %mac, ptr noundef captures(none) %timadj, i32 noundef %val) local_unnamed_addr #0 {
entry:
  %call = tail call i64 @qemu_clock_get_ns(i32 noundef 1) #11
  %arrayidx = getelementptr i8, ptr %mac, i64 46600
  %0 = load i32, ptr %arrayidx, align 4
  %and = and i32 %0, 16777215
  %shr = lshr i32 %0, 24
  %cond = tail call i32 @llvm.umax.i32(i32 %shr, i32 1)
  %and1 = and i32 %val, 16777215
  %shr2 = lshr i32 %val, 24
  %cond8 = tail call i32 @llvm.umax.i32(i32 %shr2, i32 1)
  store i32 %val, ptr %arrayidx, align 4
  %conv.i = zext i64 %call to i128
  %conv1.i = zext nneg i32 %and1 to i128
  %mul.i = mul nuw nsw i128 %conv.i, %conv1.i
  %conv2.i = zext nneg i32 %cond8 to i128
  %div.i = udiv i128 %mul.i, %conv2.i
  %conv3.i = trunc i128 %div.i to i64
  %conv1.i12 = zext nneg i32 %and to i128
  %mul.i13 = mul nuw nsw i128 %conv1.i12, %conv.i
  %conv2.i14 = zext nneg i32 %cond to i128
  %div.i15 = udiv i128 %mul.i13, %conv2.i14
  %conv3.i16 = trunc i128 %div.i15 to i64
  %sub = sub i64 %conv3.i, %conv3.i16
  %div10 = lshr i64 %sub, 4
  %1 = load i64, ptr %timadj, align 8
  %add = add i64 %div10, %1
  store i64 %add, ptr %timadj, align 8
  ret void
}